	.file	"main.c"
	.text
.Ltext0:
	.file 0 "/home/lka/practice/mygames/weneedvulkan" "main.c"
	.section	.rodata.str1.1,"aMS",@progbits,1
.LC0:
	.string	"VK_KHR_surface"
.LC1:
	.string	"VK_KHR_wayland_surface"
.LC2:
	.string	"main.c"
.LC3:
	.string	"result_ == VK_SUCCESS"
	.section	.text.unlikely,"ax",@progbits
.LCOLDB5:
	.text
.LHOTB5:
	.p2align 4
	.section	.text.unlikely
.Ltext_cold0:
	.text
	.globl	createInstance
	.type	createInstance, @function
createInstance:
.LFB167:
	.file 1 "main.c"
	.loc 1 15 29 view -0
	.cfi_startproc
	subq	$168, %rsp
	.cfi_def_cfa_offset 176
	.loc 1 17 21 is_stmt 0 view .LVU1
	pxor	%xmm0, %xmm0
.LBB15:
	.loc 1 48 27 view .LVU2
	xorl	%esi, %esi
.LBE15:
	.loc 1 15 29 view .LVU3
	movq	%fs:40, %rax
	movq	%rax, 152(%rsp)
	xorl	%eax, %eax
	.loc 1 17 3 is_stmt 1 view .LVU4
	.loc 1 22 24 is_stmt 0 view .LVU5
	leaq	16(%rsp), %rax
	.loc 1 17 21 view .LVU6
	movaps	%xmm0, 32(%rsp)
.LBB16:
	.loc 1 48 27 view .LVU7
	leaq	8(%rsp), %rdx
.LBE16:
	.loc 1 22 24 view .LVU8
	movups	%xmm0, 84(%rsp)
.LBB17:
	.loc 1 48 27 view .LVU9
	leaq	64(%rsp), %rdi
.LBE17:
	.loc 1 22 24 view .LVU10
	movups	%xmm0, 100(%rsp)
	movq	%rax, 88(%rsp)
	.loc 1 34 15 view .LVU11
	leaq	.LC1(%rip), %rax
	.loc 1 17 21 view .LVU12
	movaps	%xmm0, 16(%rsp)
	.loc 1 34 15 view .LVU13
	movq	%rax, %xmm1
	.loc 1 44 38 view .LVU14
	leaq	128(%rsp), %rax
	.loc 1 17 21 view .LVU15
	movups	%xmm0, 44(%rsp)
	.loc 1 22 24 view .LVU16
	movups	%xmm0, 68(%rsp)
	.loc 1 34 15 view .LVU17
	movq	.LC4(%rip), %xmm0
	.loc 1 17 21 view .LVU18
	movl	$4198400, 60(%rsp)
	.loc 1 22 3 is_stmt 1 view .LVU19
	.loc 1 34 3 view .LVU20
	.loc 1 34 15 is_stmt 0 view .LVU21
	punpcklqdq	%xmm1, %xmm0
	.loc 1 22 24 view .LVU22
	movl	$0, 116(%rsp)
	movl	$1, 64(%rsp)
	.loc 1 44 38 view .LVU23
	movq	%rax, 120(%rsp)
	.loc 1 45 36 view .LVU24
	movl	$2, 112(%rsp)
	.loc 1 47 14 view .LVU25
	movq	$0, 8(%rsp)
	.loc 1 34 15 view .LVU26
	movaps	%xmm0, 128(%rsp)
	.loc 1 44 3 is_stmt 1 view .LVU27
	.loc 1 45 3 view .LVU28
	.loc 1 47 3 view .LVU29
	.loc 1 48 3 view .LVU30
.LBB18:
	.loc 1 48 8 view .LVU31
	.loc 1 48 27 is_stmt 0 view .LVU32
	call	vkCreateInstance@PLT
.LVL0:
	.loc 1 48 2 is_stmt 1 discriminator 1 view .LVU33
	.loc 1 48 17 is_stmt 0 discriminator 1 view .LVU34
	testl	%eax, %eax
	jne	.L4
.LBE18:
	.loc 1 48 6 is_stmt 1 discriminator 2 view .LVU35
	.loc 1 50 3 view .LVU36
	.loc 1 50 10 is_stmt 0 view .LVU37
	movq	8(%rsp), %rax
.LVL1:
	.loc 1 51 1 view .LVU38
	movq	152(%rsp), %rdx
	subq	%fs:40, %rdx
	jne	.L7
	addq	$168, %rsp
	.cfi_remember_state
	.cfi_def_cfa_offset 8
	ret
.L7:
	.cfi_restore_state
	call	__stack_chk_fail@PLT
.LVL2:
	.loc 1 51 1 view .LVU39
	.cfi_endproc
	.section	.text.unlikely
	.cfi_startproc
	.type	createInstance.cold, @function
createInstance.cold:
.LFSB167:
.L4:
	.cfi_def_cfa_offset 176
.LBB19:
	.loc 1 15 12 is_stmt 1 view -0
.LBB20:
.LBB21:
	.loc 1 48 19 is_stmt 0 discriminator 1 view .LVU41
	leaq	__PRETTY_FUNCTION__.6(%rip), %rcx
	movl	$48, %edx
	leaq	.LC2(%rip), %rsi
	leaq	.LC3(%rip), %rdi
	call	__assert_fail@PLT
.LVL3:
	.loc 1 48 19 discriminator 1 view .LVU42
.LBE21:
.LBE20:
.LBE19:
	.cfi_endproc
.LFE167:
	.text
	.size	createInstance, .-createInstance
	.section	.text.unlikely
	.size	createInstance.cold, .-createInstance.cold
.LCOLDE5:
	.text
.LHOTE5:
	.section	.rodata.str1.1
.LC6:
	.string	"Pick discrete GPU: %s\n"
.LC7:
	.string	"Pick fallback GPU: %s\n"
	.section	.rodata.str1.8,"aMS",@progbits,1
	.align 8
.LC8:
	.string	"No physical devices available!"
	.text
	.p2align 4
	.globl	pickPhysicalDevice
	.type	pickPhysicalDevice, @function
pickPhysicalDevice:
.LVL4:
.LFB168:
	.loc 1 54 67 is_stmt 1 view -0
	.cfi_startproc
	.loc 1 54 67 is_stmt 0 view .LVU44
	pushq	%r14
	.cfi_def_cfa_offset 16
	.cfi_offset 14, -16
	pushq	%r13
	.cfi_def_cfa_offset 24
	.cfi_offset 13, -24
	pushq	%r12
	.cfi_def_cfa_offset 32
	.cfi_offset 12, -32
	pushq	%rbp
	.cfi_def_cfa_offset 40
	.cfi_offset 6, -40
	pushq	%rbx
	.cfi_def_cfa_offset 48
	.cfi_offset 3, -48
	subq	$832, %rsp
	.cfi_def_cfa_offset 880
	.loc 1 54 67 view .LVU45
	movq	%fs:40, %rax
	movq	%rax, 824(%rsp)
	xorl	%eax, %eax
	.loc 1 55 3 is_stmt 1 view .LVU46
.LBB29:
	.loc 1 55 8 view .LVU47
.LVL5:
	.loc 1 55 26 discriminator 1 view .LVU48
	testl	%esi, %esi
	je	.L9
	movl	%esi, %esi
	.loc 1 55 26 is_stmt 0 discriminator 1 view .LVU49
	movq	%rdi, %rbp
	xorl	%ebx, %ebx
	movq	%rsp, %r14
	leaq	0(,%rsi,8), %r13
	jmp	.L18
.LVL6:
	.p2align 4,,10
	.p2align 3
.L13:
	.loc 1 55 49 is_stmt 1 discriminator 2 view .LVU50
	.loc 1 55 26 discriminator 1 view .LVU51
	addq	$8, %rbx
.LVL7:
	.loc 1 55 26 is_stmt 0 discriminator 1 view .LVU52
	cmpq	%r13, %rbx
	je	.L50
.LVL8:
.L18:
.LBB30:
	.loc 1 56 5 is_stmt 1 view .LVU53
	.loc 1 57 5 view .LVU54
	.loc 1 57 50 is_stmt 0 view .LVU55
	movq	%rbp, %r12
	addq	%rbx, %r12
	jc	.L51
.L10:
	.loc 1 57 5 view .LVU56
	testq	%r12, %r12
	je	.L11
	testb	$7, %r12b
	jne	.L11
.L12:
	movq	0(%rbp,%rbx), %rdi
	movq	%r14, %rsi
	call	vkGetPhysicalDeviceProperties@PLT
.LVL9:
	.loc 1 59 5 is_stmt 1 view .LVU57
	.loc 1 59 8 is_stmt 0 view .LVU58
	cmpl	$2, 16(%rsp)
	jne	.L13
	.loc 1 60 7 is_stmt 1 view .LVU59
	xorl	%eax, %eax
	leaq	20(%rsp), %rsi
	leaq	.LC6(%rip), %rdi
	call	printf@PLT
.LVL10:
	.loc 1 61 7 view .LVU60
	.loc 1 61 29 is_stmt 0 view .LVU61
	cmpq	%rbp, %r12
	jb	.L52
.L14:
	testq	%r12, %r12
	je	.L15
	testb	$7, %r12b
	jne	.L15
.L16:
	movq	(%r12), %rax
.LVL11:
.L8:
	.loc 1 61 29 view .LVU62
.LBE30:
.LBE29:
	.loc 1 75 1 view .LVU63
	movq	824(%rsp), %rdx
	subq	%fs:40, %rdx
	jne	.L53
	addq	$832, %rsp
	.cfi_remember_state
	.cfi_def_cfa_offset 48
	popq	%rbx
	.cfi_def_cfa_offset 40
	popq	%rbp
	.cfi_def_cfa_offset 32
	popq	%r12
	.cfi_def_cfa_offset 24
	popq	%r13
	.cfi_def_cfa_offset 16
	popq	%r14
	.cfi_def_cfa_offset 8
	ret
.LVL12:
	.p2align 4,,10
	.p2align 3
.L50:
	.cfi_restore_state
	.loc 1 65 3 is_stmt 1 view .LVU64
.LBB32:
.LBI32:
	.loc 1 53 18 view .LVU65
.LBB33:
	.loc 1 66 5 view .LVU66
	.loc 1 67 5 view .LVU67
	testq	%rbp, %rbp
	je	.L19
	testb	$7, %bpl
	jne	.L19
.L20:
	.loc 1 67 5 is_stmt 0 view .LVU68
	movq	0(%rbp), %rdi
	movq	%r14, %rsi
	call	vkGetPhysicalDeviceProperties@PLT
.LVL13:
	.loc 1 69 5 is_stmt 1 view .LVU69
	xorl	%eax, %eax
	leaq	20(%rsp), %rsi
	leaq	.LC7(%rip), %rdi
	call	printf@PLT
.LVL14:
	.loc 1 70 5 view .LVU70
	.loc 1 70 27 is_stmt 0 view .LVU71
	testq	%rbp, %rbp
	je	.L21
	testb	$7, %bpl
	jne	.L21
.L22:
	movq	0(%rbp), %rax
.LVL15:
	.loc 1 70 27 view .LVU72
	jmp	.L8
.LVL16:
.L9:
	.loc 1 70 27 view .LVU73
.LBE33:
.LBE32:
	.loc 1 65 3 is_stmt 1 view .LVU74
	.loc 1 73 3 view .LVU75
	leaq	.LC8(%rip), %rdi
.LVL17:
	.loc 1 73 3 is_stmt 0 view .LVU76
	xorl	%eax, %eax
	call	printf@PLT
.LVL18:
	.loc 1 74 3 is_stmt 1 view .LVU77
	.loc 1 74 10 is_stmt 0 view .LVU78
	xorl	%eax, %eax
	jmp	.L8
.LVL19:
.L11:
.LBB35:
.LBB31:
	.loc 1 57 5 view .LVU79
	movq	%r12, %rsi
	leaq	.Lubsan_data5(%rip), %rdi
	call	__ubsan_handle_type_mismatch_v1@PLT
.LVL20:
	jmp	.L12
.L51:
	.loc 1 57 50 view .LVU80
	movq	%r12, %rdx
	movq	%rbp, %rsi
	leaq	.Lubsan_data4(%rip), %rdi
	call	__ubsan_handle_pointer_overflow@PLT
.LVL21:
	jmp	.L10
.L52:
	.loc 1 61 29 view .LVU81
	movq	%r12, %rdx
	movq	%rbp, %rsi
	leaq	.Lubsan_data6(%rip), %rdi
	call	__ubsan_handle_pointer_overflow@PLT
.LVL22:
	jmp	.L14
.L15:
	.loc 1 61 29 view .LVU82
	movq	%r12, %rsi
	leaq	.Lubsan_data7(%rip), %rdi
	call	__ubsan_handle_type_mismatch_v1@PLT
.LVL23:
	jmp	.L16
.LVL24:
.L53:
	.loc 1 61 29 view .LVU83
.LBE31:
.LBE35:
	.loc 1 75 1 view .LVU84
	call	__stack_chk_fail@PLT
.LVL25:
.L19:
.LBB36:
.LBB34:
	.loc 1 67 5 view .LVU85
	movq	%rbp, %rsi
	leaq	.Lubsan_data8(%rip), %rdi
	call	__ubsan_handle_type_mismatch_v1@PLT
.LVL26:
	jmp	.L20
.L21:
	.loc 1 70 27 view .LVU86
	movq	%rbp, %rsi
	leaq	.Lubsan_data9(%rip), %rdi
	call	__ubsan_handle_type_mismatch_v1@PLT
.LVL27:
	jmp	.L22
.LBE34:
.LBE36:
	.cfi_endproc
.LFE168:
	.size	pickPhysicalDevice, .-pickPhysicalDevice
	.section	.rodata.str1.1
.LC10:
	.string	"VK_KHR_swapchain"
	.section	.text.unlikely
.LCOLDB12:
	.text
.LHOTB12:
	.p2align 4
	.globl	createDevice
	.type	createDevice, @function
createDevice:
.LVL28:
.LFB169:
	.loc 1 78 46 is_stmt 1 view -0
	.cfi_startproc
	.loc 1 78 46 is_stmt 0 view .LVU88
	pushq	%rbx
	.cfi_def_cfa_offset 16
	.cfi_offset 3, -16
	subq	$176, %rsp
	.cfi_def_cfa_offset 192
	.loc 1 78 46 view .LVU89
	movq	%fs:40, %rbx
	movq	%rbx, 168(%rsp)
	movq	%rsi, %rbx
	.loc 1 79 3 is_stmt 1 view .LVU90
	.loc 1 79 16 is_stmt 0 view .LVU91
	testq	%rdx, %rdx
	je	.L55
	testb	$3, %dl
	jne	.L55
.LVL29:
.L56:
	.loc 1 83 27 view .LVU92
	pxor	%xmm0, %xmm0
	.loc 1 79 16 view .LVU93
	movl	$0, (%rdx)
	.loc 1 81 3 is_stmt 1 view .LVU94
	.loc 1 81 9 is_stmt 0 view .LVU95
	movl	$0x3f800000, 156(%rsp)
	.loc 1 83 3 is_stmt 1 view .LVU96
	.loc 1 83 27 is_stmt 0 view .LVU97
	movl	$0, 68(%rsp)
	movl	$2, 32(%rsp)
	movups	%xmm0, 36(%rsp)
	movups	%xmm0, 52(%rsp)
	.loc 1 85 27 view .LVU98
	testq	%rdx, %rdx
	je	.L57
	testb	$3, %dl
	jne	.L57
.L58:
	.loc 1 92 22 view .LVU99
	pxor	%xmm0, %xmm0
.LBB41:
	.loc 1 101 27 view .LVU100
	xorl	%edx, %edx
	leaq	24(%rsp), %rcx
	movq	%rbx, %rdi
.LBE41:
	.loc 1 83 27 view .LVU101
	leaq	156(%rsp), %rax
	.loc 1 92 22 view .LVU102
	movups	%xmm0, 100(%rsp)
.LBB42:
	.loc 1 101 27 view .LVU103
	leaq	80(%rsp), %rsi
.LBE42:
	.loc 1 83 27 view .LVU104
	movq	%rax, 64(%rsp)
	.loc 1 90 3 is_stmt 1 view .LVU105
	.loc 1 90 15 is_stmt 0 view .LVU106
	leaq	.LC10(%rip), %rax
	movq	%rax, 160(%rsp)
	.loc 1 92 3 is_stmt 1 view .LVU107
	.loc 1 92 22 is_stmt 0 view .LVU108
	leaq	32(%rsp), %rax
	movq	%rax, 104(%rsp)
	leaq	160(%rsp), %rax
	movups	%xmm0, 116(%rsp)
	movups	%xmm0, 132(%rsp)
	.loc 1 83 27 view .LVU109
	movl	$1, 56(%rsp)
	.loc 1 92 22 view .LVU110
	movl	$0, 148(%rsp)
	movl	$3, 80(%rsp)
	movl	$1, 100(%rsp)
	movl	$1, 128(%rsp)
	movq	%rax, 136(%rsp)
	.loc 1 100 3 is_stmt 1 view .LVU111
	.loc 1 100 12 is_stmt 0 view .LVU112
	movq	$0, 24(%rsp)
	.loc 1 101 3 is_stmt 1 view .LVU113
.LBB43:
	.loc 1 101 8 view .LVU114
.LBE43:
	.loc 1 92 22 is_stmt 0 view .LVU115
	movups	%xmm0, 84(%rsp)
.LBB44:
	.loc 1 101 27 view .LVU116
	call	vkCreateDevice@PLT
.LVL30:
	.loc 1 101 2 is_stmt 1 discriminator 1 view .LVU117
	.loc 1 101 17 is_stmt 0 discriminator 1 view .LVU118
	testl	%eax, %eax
	jne	.L73
.LBE44:
	.loc 1 101 6 is_stmt 1 discriminator 2 view .LVU119
	.loc 1 103 3 view .LVU120
	.loc 1 103 10 is_stmt 0 view .LVU121
	movq	24(%rsp), %rax
.LVL31:
	.loc 1 104 1 view .LVU122
	movq	168(%rsp), %rdx
	subq	%fs:40, %rdx
	jne	.L75
	addq	$176, %rsp
	.cfi_remember_state
	.cfi_def_cfa_offset 16
	popq	%rbx
	.cfi_def_cfa_offset 8
.LVL32:
	.loc 1 104 1 view .LVU123
	ret
.LVL33:
.L55:
	.cfi_restore_state
	.loc 1 79 16 view .LVU124
	movq	%rdx, %rsi
	leaq	.Lubsan_data10(%rip), %rdi
.LVL34:
	.loc 1 79 16 view .LVU125
	movq	%rdx, 8(%rsp)
	call	__ubsan_handle_type_mismatch_v1@PLT
.LVL35:
	.loc 1 79 16 view .LVU126
	movq	8(%rsp), %rdx
	jmp	.L56
.LVL36:
.L57:
	.loc 1 85 27 view .LVU127
	movq	%rdx, %rsi
	leaq	.Lubsan_data11(%rip), %rdi
	call	__ubsan_handle_type_mismatch_v1@PLT
.LVL37:
	jmp	.L58
.LVL38:
.L75:
	.loc 1 104 1 view .LVU128
	call	__stack_chk_fail@PLT
.LVL39:
	.loc 1 104 1 view .LVU129
	.cfi_endproc
	.section	.text.unlikely
	.cfi_startproc
	.type	createDevice.cold, @function
createDevice.cold:
.LFSB169:
.L73:
	.cfi_def_cfa_offset 192
	.cfi_offset 3, -16
.LBB45:
	.loc 1 77 10 is_stmt 1 view .LVU43
.LVL40:
.LBB46:
.LBB47:
	.loc 1 101 19 is_stmt 0 discriminator 1 view .LVU131
	leaq	__PRETTY_FUNCTION__.5(%rip), %rcx
	movl	$101, %edx
	leaq	.LC2(%rip), %rsi
	leaq	.LC3(%rip), %rdi
	call	__assert_fail@PLT
.LVL41:
	.loc 1 101 19 discriminator 1 view .LVU132
.LBE47:
.LBE46:
.LBE45:
	.cfi_endproc
.LFE169:
	.text
	.size	createDevice, .-createDevice
	.section	.text.unlikely
	.size	createDevice.cold, .-createDevice.cold
.LCOLDE12:
	.text
.LHOTE12:
	.section	.text.unlikely
.LCOLDB13:
	.text
.LHOTB13:
	.p2align 4
	.globl	createSurface
	.type	createSurface, @function
createSurface:
.LVL42:
.LFB170:
	.loc 1 106 69 is_stmt 1 view -0
	.cfi_startproc
	.loc 1 106 69 is_stmt 0 view .LVU134
	pushq	%rbp
	.cfi_def_cfa_offset 16
	.cfi_offset 6, -16
	.loc 1 118 33 view .LVU135
	pxor	%xmm0, %xmm0
	.loc 1 106 69 view .LVU136
	pushq	%rbx
	.cfi_def_cfa_offset 24
	.cfi_offset 3, -24
	movq	%rdi, %rbx
	subq	$72, %rsp
	.cfi_def_cfa_offset 96
	.loc 1 106 69 view .LVU137
	movq	%fs:40, %rbp
	movq	%rbp, 56(%rsp)
	movq	%rsi, %rbp
	.loc 1 118 3 is_stmt 1 view .LVU138
	.loc 1 118 33 is_stmt 0 view .LVU139
	movups	%xmm0, 20(%rsp)
	movups	%xmm0, 36(%rsp)
	movl	$0, 52(%rsp)
	movl	$1000006000, 16(%rsp)
	.loc 1 120 18 view .LVU140
	call	glfwGetWaylandDisplay@PLT
.LVL43:
	.loc 1 118 33 view .LVU141
	movq	%rax, 40(%rsp)
	.loc 1 121 18 view .LVU142
	movq	%rbp, %rdi
	call	glfwGetWaylandWindow@PLT
.LVL44:
.LBB52:
	.loc 1 125 27 view .LVU143
	xorl	%edx, %edx
	leaq	8(%rsp), %rcx
	movq	%rbx, %rdi
	leaq	16(%rsp), %rsi
.LBE52:
	.loc 1 118 33 view .LVU144
	movq	%rax, 48(%rsp)
	.loc 1 124 3 is_stmt 1 view .LVU145
	.loc 1 124 16 is_stmt 0 view .LVU146
	movq	$0, 8(%rsp)
	.loc 1 125 3 is_stmt 1 view .LVU147
.LBB53:
	.loc 1 125 8 view .LVU148
	.loc 1 125 27 is_stmt 0 view .LVU149
	call	vkCreateWaylandSurfaceKHR@PLT
.LVL45:
	.loc 1 125 2 is_stmt 1 discriminator 1 view .LVU150
	.loc 1 125 17 is_stmt 0 discriminator 1 view .LVU151
	testl	%eax, %eax
	jne	.L79
.LBE53:
	.loc 1 125 6 is_stmt 1 discriminator 2 view .LVU152
	.loc 1 126 3 view .LVU153
	.loc 1 126 10 is_stmt 0 view .LVU154
	movq	8(%rsp), %rax
.LVL46:
	.loc 1 133 1 view .LVU155
	movq	56(%rsp), %rdx
	subq	%fs:40, %rdx
	jne	.L81
	addq	$72, %rsp
	.cfi_remember_state
	.cfi_def_cfa_offset 24
	popq	%rbx
	.cfi_def_cfa_offset 16
.LVL47:
	.loc 1 133 1 view .LVU156
	popq	%rbp
	.cfi_def_cfa_offset 8
.LVL48:
	.loc 1 133 1 view .LVU157
	ret
.LVL49:
.L81:
	.cfi_restore_state
	.loc 1 133 1 view .LVU158
	call	__stack_chk_fail@PLT
.LVL50:
	.loc 1 133 1 view .LVU159
	.cfi_endproc
	.section	.text.unlikely
	.cfi_startproc
	.type	createSurface.cold, @function
createSurface.cold:
.LFSB170:
.L79:
	.cfi_def_cfa_offset 96
	.cfi_offset 3, -24
	.cfi_offset 6, -16
.LBB54:
	.loc 1 106 14 is_stmt 1 view .LVU133
.LVL51:
.LBB55:
.LBB56:
	.loc 1 125 19 is_stmt 0 discriminator 1 view .LVU161
	leaq	__PRETTY_FUNCTION__.4(%rip), %rcx
	movl	$125, %edx
	leaq	.LC2(%rip), %rsi
	leaq	.LC3(%rip), %rdi
	call	__assert_fail@PLT
.LVL52:
	.loc 1 125 19 discriminator 1 view .LVU162
.LBE56:
.LBE55:
.LBE54:
	.cfi_endproc
.LFE170:
	.text
	.size	createSurface, .-createSurface
	.section	.text.unlikely
	.size	createSurface.cold, .-createSurface.cold
.LCOLDE13:
	.text
.LHOTE13:
	.section	.text.unlikely
.LCOLDB16:
	.text
.LHOTB16:
	.p2align 4
	.globl	createSwapchain
	.type	createSwapchain, @function
createSwapchain:
.LVL53:
.LFB171:
	.loc 1 137 49 is_stmt 1 view -0
	.cfi_startproc
	.loc 1 137 49 is_stmt 0 view .LVU164
	subq	$152, %rsp
	.cfi_def_cfa_offset 160
	.loc 1 137 49 view .LVU165
	movq	%rdi, %r9
	movl	%edx, 12(%rsp)
	.loc 1 138 28 view .LVU166
	leaq	40(%rsp), %rdi
.LVL54:
	.loc 1 137 49 view .LVU167
	movl	%ecx, %edx
.LVL55:
	.loc 1 138 28 view .LVU168
	movl	$12, %ecx
.LVL56:
	.loc 1 137 49 view .LVU169
	movq	%fs:40, %rax
	movq	%rax, 136(%rsp)
	xorl	%eax, %eax
	.loc 1 138 3 is_stmt 1 view .LVU170
	.loc 1 138 28 is_stmt 0 view .LVU171
	movq	$0, 36(%rsp)
	movq	$0, 128(%rsp)
	rep stosq
	movq	%rsi, 56(%rsp)
.LBB61:
	.loc 1 153 27 view .LVU172
	leaq	24(%rsp), %rcx
	movq	%r9, %rdi
.LBE61:
	.loc 1 138 28 view .LVU173
	movq	.LC14(%rip), %rax
	movl	%edx, 76(%rsp)
.LBB62:
	.loc 1 153 27 view .LVU174
	leaq	32(%rsp), %rsi
.LVL57:
	.loc 1 153 27 view .LVU175
	xorl	%edx, %edx
.LVL58:
	.loc 1 153 27 view .LVU176
.LBE62:
	.loc 1 138 28 view .LVU177
	movl	$1000001000, 32(%rsp)
	movq	%rax, 64(%rsp)
	movq	.LC15(%rip), %rax
	movl	$1000104008, 72(%rsp)
	movq	%rax, 84(%rsp)
	leaq	12(%rsp), %rax
.LVL59:
	.loc 1 138 28 view .LVU178
	movl	%r8d, 80(%rsp)
	movl	$1, 96(%rsp)
	movq	%rax, 104(%rsp)
	movl	$2, 120(%rsp)
	.loc 1 152 3 is_stmt 1 view .LVU179
	.loc 1 152 18 is_stmt 0 view .LVU180
	movq	$0, 24(%rsp)
	.loc 1 153 3 is_stmt 1 view .LVU181
.LBB63:
	.loc 1 153 8 view .LVU182
	.loc 1 153 27 is_stmt 0 view .LVU183
	call	vkCreateSwapchainKHR@PLT
.LVL60:
	.loc 1 153 2 is_stmt 1 discriminator 1 view .LVU184
	.loc 1 153 17 is_stmt 0 discriminator 1 view .LVU185
	testl	%eax, %eax
	jne	.L85
.LBE63:
	.loc 1 153 6 is_stmt 1 discriminator 2 view .LVU186
	.loc 1 155 3 view .LVU187
	.loc 1 155 10 is_stmt 0 view .LVU188
	movq	24(%rsp), %rax
.LVL61:
	.loc 1 156 1 view .LVU189
	movq	136(%rsp), %rdx
	subq	%fs:40, %rdx
	jne	.L87
	addq	$152, %rsp
	.cfi_remember_state
	.cfi_def_cfa_offset 8
	ret
.L87:
	.cfi_restore_state
	call	__stack_chk_fail@PLT
.LVL62:
	.loc 1 156 1 view .LVU190
	.cfi_endproc
	.section	.text.unlikely
	.cfi_startproc
	.type	createSwapchain.cold, @function
createSwapchain.cold:
.LFSB171:
.L85:
	.cfi_def_cfa_offset 160
.LBB64:
	.loc 1 135 16 is_stmt 1 view .LVU163
.LVL63:
.LBB65:
.LBB66:
	.loc 1 153 19 is_stmt 0 discriminator 1 view .LVU192
	leaq	__PRETTY_FUNCTION__.3(%rip), %rcx
	movl	$153, %edx
	leaq	.LC2(%rip), %rsi
	leaq	.LC3(%rip), %rdi
	call	__assert_fail@PLT
.LVL64:
	.loc 1 153 19 discriminator 1 view .LVU193
.LBE66:
.LBE65:
.LBE64:
	.cfi_endproc
.LFE171:
	.text
	.size	createSwapchain, .-createSwapchain
	.section	.text.unlikely
	.size	createSwapchain.cold, .-createSwapchain.cold
.LCOLDE16:
	.text
.LHOTE16:
	.section	.text.unlikely
.LCOLDB17:
	.text
.LHOTB17:
	.p2align 4
	.globl	createSemaphore
	.type	createSemaphore, @function
createSemaphore:
.LVL65:
.LFB172:
	.loc 1 158 46 is_stmt 1 view -0
	.cfi_startproc
	.loc 1 158 46 is_stmt 0 view .LVU195
	subq	$56, %rsp
	.cfi_def_cfa_offset 64
	.loc 1 159 25 view .LVU196
	pxor	%xmm0, %xmm0
.LBB71:
	.loc 1 164 27 view .LVU197
	xorl	%edx, %edx
.LBE71:
	.loc 1 158 46 view .LVU198
	movq	%fs:40, %rax
	movq	%rax, 40(%rsp)
	xorl	%eax, %eax
	.loc 1 159 3 is_stmt 1 view .LVU199
.LBB72:
	.loc 1 164 27 is_stmt 0 view .LVU200
	leaq	8(%rsp), %rcx
	leaq	16(%rsp), %rsi
.LBE72:
	.loc 1 159 25 view .LVU201
	movl	$0, 36(%rsp)
	movl	$9, 16(%rsp)
	.loc 1 163 3 is_stmt 1 view .LVU202
	.loc 1 163 15 is_stmt 0 view .LVU203
	movq	$0, 8(%rsp)
	.loc 1 164 3 is_stmt 1 view .LVU204
.LBB73:
	.loc 1 164 8 view .LVU205
.LBE73:
	.loc 1 159 25 is_stmt 0 view .LVU206
	movups	%xmm0, 20(%rsp)
.LBB74:
	.loc 1 164 27 view .LVU207
	call	vkCreateSemaphore@PLT
.LVL66:
	.loc 1 164 2 is_stmt 1 discriminator 1 view .LVU208
	.loc 1 164 17 is_stmt 0 discriminator 1 view .LVU209
	testl	%eax, %eax
	jne	.L91
.LBE74:
	.loc 1 164 6 is_stmt 1 discriminator 2 view .LVU210
	.loc 1 166 3 view .LVU211
	.loc 1 166 10 is_stmt 0 view .LVU212
	movq	8(%rsp), %rax
.LVL67:
	.loc 1 167 1 view .LVU213
	movq	40(%rsp), %rdx
	subq	%fs:40, %rdx
	jne	.L93
	addq	$56, %rsp
	.cfi_remember_state
	.cfi_def_cfa_offset 8
	ret
.L93:
	.cfi_restore_state
	call	__stack_chk_fail@PLT
.LVL68:
	.loc 1 167 1 view .LVU214
	.cfi_endproc
	.section	.text.unlikely
	.cfi_startproc
	.type	createSemaphore.cold, @function
createSemaphore.cold:
.LFSB172:
.L91:
	.cfi_def_cfa_offset 64
.LBB75:
	.loc 1 158 13 is_stmt 1 view .LVU194
.LVL69:
.LBB76:
.LBB77:
	.loc 1 164 19 is_stmt 0 discriminator 1 view .LVU216
	leaq	__PRETTY_FUNCTION__.2(%rip), %rcx
	movl	$164, %edx
	leaq	.LC2(%rip), %rsi
	leaq	.LC3(%rip), %rdi
	call	__assert_fail@PLT
.LVL70:
	.loc 1 164 19 discriminator 1 view .LVU217
.LBE77:
.LBE76:
.LBE75:
	.cfi_endproc
.LFE172:
	.text
	.size	createSemaphore, .-createSemaphore
	.section	.text.unlikely
	.size	createSemaphore.cold, .-createSemaphore.cold
.LCOLDE17:
	.text
.LHOTE17:
	.section	.text.unlikely
.LCOLDB18:
	.text
.LHOTB18:
	.p2align 4
	.globl	createCommandPool
	.type	createCommandPool, @function
createCommandPool:
.LVL71:
.LFB173:
	.loc 1 169 72 is_stmt 1 view -0
	.cfi_startproc
	.loc 1 169 72 is_stmt 0 view .LVU219
	subq	$56, %rsp
	.cfi_def_cfa_offset 64
.LBB82:
	.loc 1 177 27 view .LVU220
	xorl	%edx, %edx
.LBE82:
	.loc 1 169 72 view .LVU221
	movq	%fs:40, %rax
	movq	%rax, 40(%rsp)
	xorl	%eax, %eax
	.loc 1 170 3 is_stmt 1 view .LVU222
.LBB83:
	.loc 1 177 27 is_stmt 0 view .LVU223
	leaq	8(%rsp), %rcx
.LBE83:
	.loc 1 170 27 view .LVU224
	movl	%esi, 36(%rsp)
	.loc 1 176 3 is_stmt 1 view .LVU225
.LBB84:
	.loc 1 177 27 is_stmt 0 view .LVU226
	leaq	16(%rsp), %rsi
.LVL72:
	.loc 1 177 27 view .LVU227
.LBE84:
	.loc 1 170 27 view .LVU228
	movq	$0, 20(%rsp)
	movl	$0, 28(%rsp)
	movl	$39, 16(%rsp)
	movl	$1, 32(%rsp)
	.loc 1 176 17 view .LVU229
	movq	$0, 8(%rsp)
	.loc 1 177 3 is_stmt 1 view .LVU230
.LBB85:
	.loc 1 177 8 view .LVU231
	.loc 1 177 27 is_stmt 0 view .LVU232
	call	vkCreateCommandPool@PLT
.LVL73:
	.loc 1 177 2 is_stmt 1 discriminator 1 view .LVU233
	.loc 1 177 17 is_stmt 0 discriminator 1 view .LVU234
	testl	%eax, %eax
	jne	.L97
.LBE85:
	.loc 1 177 6 is_stmt 1 discriminator 2 view .LVU235
	.loc 1 179 3 view .LVU236
	.loc 1 179 10 is_stmt 0 view .LVU237
	movq	8(%rsp), %rax
.LVL74:
	.loc 1 180 1 view .LVU238
	movq	40(%rsp), %rdx
	subq	%fs:40, %rdx
	jne	.L99
	addq	$56, %rsp
	.cfi_remember_state
	.cfi_def_cfa_offset 8
	ret
.L99:
	.cfi_restore_state
	call	__stack_chk_fail@PLT
.LVL75:
	.loc 1 180 1 view .LVU239
	.cfi_endproc
	.section	.text.unlikely
	.cfi_startproc
	.type	createCommandPool.cold, @function
createCommandPool.cold:
.LFSB173:
.L97:
	.cfi_def_cfa_offset 64
.LBB86:
	.loc 1 169 15 is_stmt 1 view .LVU218
.LVL76:
.LBB87:
.LBB88:
	.loc 1 177 19 is_stmt 0 discriminator 1 view .LVU241
	leaq	__PRETTY_FUNCTION__.1(%rip), %rcx
	movl	$177, %edx
	leaq	.LC2(%rip), %rsi
	leaq	.LC3(%rip), %rdi
	call	__assert_fail@PLT
.LVL77:
	.loc 1 177 19 discriminator 1 view .LVU242
.LBE88:
.LBE87:
.LBE86:
	.cfi_endproc
.LFE173:
	.text
	.size	createCommandPool, .-createCommandPool
	.section	.text.unlikely
	.size	createCommandPool.cold, .-createCommandPool.cold
.LCOLDE18:
	.text
.LHOTE18:
	.section	.rodata.str1.1
.LC19:
	.string	"ok"
.LC20:
	.string	"instance"
.LC21:
	.string	"physicalDevice"
.LC22:
	.string	"device"
.LC23:
	.string	"window without windows"
.LC24:
	.string	"window"
.LC25:
	.string	"surface"
.LC26:
	.string	"swapchain"
.LC27:
	.string	"acquireSemaphore"
.LC28:
	.string	"releaseSemaphore"
.LC29:
	.string	"commandPool"
	.section	.text.unlikely
.LCOLDB31:
	.section	.text.startup,"ax",@progbits
.LHOTB31:
	.p2align 4
	.globl	main
	.type	main, @function
main:
.LFB174:
	.loc 1 182 12 is_stmt 1 view -0
	.cfi_startproc
	pushq	%r15
	.cfi_def_cfa_offset 16
	.cfi_offset 15, -16
	pushq	%r14
	.cfi_def_cfa_offset 24
	.cfi_offset 14, -24
	pushq	%r13
	.cfi_def_cfa_offset 32
	.cfi_offset 13, -32
	pushq	%r12
	.cfi_def_cfa_offset 40
	.cfi_offset 12, -40
	pushq	%rbp
	.cfi_def_cfa_offset 48
	.cfi_offset 6, -48
	pushq	%rbx
	.cfi_def_cfa_offset 56
	.cfi_offset 3, -56
	subq	$520, %rsp
	.cfi_def_cfa_offset 576
	movq	%fs:40, %rax
	movq	%rax, 504(%rsp)
	leaq	104(%rsp), %rax
	leaq	96(%rsp), %rbx
	leaq	112(%rsp), %rdx
	movq	%rbx, 8(%rsp)
	movq	%rdx, %xmm7
	movq	%rax, %xmm6
	leaq	100(%rsp), %rax
	movq	%rax, %xmm0
	movhps	8(%rsp), %xmm6
	punpcklqdq	%xmm0, %xmm7
	movaps	%xmm6, 32(%rsp)
	movaps	%xmm7, 16(%rsp)
	.loc 1 184 3 view .LVU244
	.loc 1 184 12 is_stmt 0 view .LVU245
	call	glfwInit@PLT
.LVL78:
	.loc 1 185 2 is_stmt 1 view .LVU246
	.loc 1 185 17 is_stmt 0 view .LVU247
	testl	%eax, %eax
	je	.L129
	.loc 1 187 3 is_stmt 1 view .LVU248
	.loc 1 187 25 is_stmt 0 view .LVU249
	xorl	%eax, %eax
.LVL79:
	.loc 1 187 25 view .LVU250
	call	createInstance
.LVL80:
	movq	%rax, 48(%rsp)
.LVL81:
	.loc 1 188 2 is_stmt 1 view .LVU251
	.loc 1 188 17 is_stmt 0 view .LVU252
	testq	%rax, %rax
	je	.L130
.LBB89:
	.loc 1 193 27 view .LVU253
	leaq	432(%rsp), %rbx
	movq	%rax, %rdi
.LBE89:
	.loc 1 190 3 is_stmt 1 view .LVU254
	.loc 1 191 3 view .LVU255
.LBB90:
	.loc 1 193 27 is_stmt 0 view .LVU256
	leaq	76(%rsp), %rsi
.LBE90:
	.loc 1 191 12 view .LVU257
	movl	$8, 76(%rsp)
	.loc 1 193 3 is_stmt 1 view .LVU258
.LBB91:
	.loc 1 193 8 view .LVU259
	.loc 1 193 27 is_stmt 0 view .LVU260
	movq	%rbx, %rdx
	call	vkEnumeratePhysicalDevices@PLT
.LVL82:
	.loc 1 193 2 is_stmt 1 discriminator 1 view .LVU261
	.loc 1 193 17 is_stmt 0 discriminator 1 view .LVU262
	testl	%eax, %eax
	jne	.L131
.LBE91:
	.loc 1 193 6 is_stmt 1 discriminator 2 view .LVU263
	.loc 1 196 3 view .LVU264
	.loc 1 197 7 is_stmt 0 view .LVU265
	movl	76(%rsp), %esi
	movq	%rbx, %rdi
	call	pickPhysicalDevice
.LVL83:
	.loc 1 197 7 view .LVU266
	movq	%rax, %rsi
.LVL84:
	.loc 1 198 2 is_stmt 1 view .LVU267
	.loc 1 198 17 is_stmt 0 view .LVU268
	testq	%rax, %rax
	je	.L132
	.loc 1 200 3 is_stmt 1 view .LVU269
	.loc 1 201 21 is_stmt 0 view .LVU270
	movq	48(%rsp), %rdi
	leaq	80(%rsp), %rdx
	.loc 1 200 12 view .LVU271
	movl	$0, 80(%rsp)
	.loc 1 201 3 is_stmt 1 view .LVU272
	.loc 1 201 21 is_stmt 0 view .LVU273
	call	createDevice
.LVL85:
	.loc 1 201 21 view .LVU274
	movq	%rax, %rbp
.LVL86:
	.loc 1 202 2 is_stmt 1 view .LVU275
	.loc 1 202 17 is_stmt 0 view .LVU276
	testq	%rax, %rax
	je	.L133
	.loc 1 204 3 is_stmt 1 view .LVU277
	.loc 1 205 7 is_stmt 0 view .LVU278
	xorl	%r8d, %r8d
	xorl	%ecx, %ecx
	movl	$768, %esi
	movl	$1024, %edi
	leaq	.LC23(%rip), %rdx
	call	glfwCreateWindow@PLT
.LVL87:
	.loc 1 205 7 view .LVU279
	movq	%rax, %r12
.LVL88:
	.loc 1 206 2 is_stmt 1 view .LVU280
	.loc 1 206 17 is_stmt 0 view .LVU281
	testq	%rax, %rax
	je	.L134
	.loc 1 208 3 is_stmt 1 view .LVU282
	.loc 1 208 26 is_stmt 0 view .LVU283
	movq	48(%rsp), %rdi
	movq	%rax, %rsi
	call	createSurface
.LVL89:
	.loc 1 208 26 view .LVU284
	movq	%rax, %rbx
.LVL90:
	.loc 1 209 2 is_stmt 1 view .LVU285
	.loc 1 209 17 is_stmt 0 view .LVU286
	testq	%rax, %rax
	je	.L135
	.loc 1 211 3 is_stmt 1 view .LVU287
	.loc 1 212 3 is_stmt 0 view .LVU288
	leaq	88(%rsp), %rdx
	leaq	84(%rsp), %rsi
	movq	%r12, %rdi
	.loc 1 211 7 view .LVU289
	movl	$0, 84(%rsp)
	.loc 1 211 24 view .LVU290
	movl	$0, 88(%rsp)
	.loc 1 212 3 is_stmt 1 view .LVU291
	call	glfwGetWindowSize@PLT
.LVL91:
	.loc 1 214 3 view .LVU292
	.loc 1 215 7 is_stmt 0 view .LVU293
	movl	80(%rsp), %r13d
	movq	%rbx, %rsi
	movq	%rbp, %rdi
	movl	88(%rsp), %r8d
	movl	84(%rsp), %ecx
	movl	%r13d, %edx
	call	createSwapchain
.LVL92:
	.loc 1 214 18 view .LVU294
	movq	%rax, 104(%rsp)
	.loc 1 216 2 is_stmt 1 view .LVU295
	.loc 1 216 17 is_stmt 0 view .LVU296
	testq	%rax, %rax
	je	.L136
	.loc 1 218 3 is_stmt 1 view .LVU297
	.loc 1 218 34 is_stmt 0 view .LVU298
	movq	%rbp, %rdi
	call	createSemaphore
.LVL93:
	.loc 1 218 15 discriminator 1 view .LVU299
	movq	%rax, 112(%rsp)
	.loc 1 219 2 is_stmt 1 view .LVU300
	.loc 1 219 17 is_stmt 0 view .LVU301
	testq	%rax, %rax
	je	.L137
	.loc 1 221 3 is_stmt 1 view .LVU302
	.loc 1 221 34 is_stmt 0 view .LVU303
	movq	%rbp, %rdi
	call	createSemaphore
.LVL94:
	.loc 1 221 15 discriminator 1 view .LVU304
	movq	%rax, 120(%rsp)
	.loc 1 222 2 is_stmt 1 view .LVU305
	.loc 1 222 17 is_stmt 0 view .LVU306
	testq	%rax, %rax
	je	.L138
	.loc 1 224 3 is_stmt 1 view .LVU307
	.loc 1 225 3 is_stmt 0 view .LVU308
	xorl	%edx, %edx
	leaq	128(%rsp), %rcx
	movl	%r13d, %esi
	movq	%rbp, %rdi
	.loc 1 224 11 view .LVU309
	movq	$0, 128(%rsp)
	.loc 1 225 3 is_stmt 1 view .LVU310
.LBB92:
	.loc 1 230 27 is_stmt 0 view .LVU311
	leaq	400(%rsp), %rbx
.LVL95:
	.loc 1 230 27 view .LVU312
.LBE92:
	.loc 1 225 3 view .LVU313
	call	vkGetDeviceQueue@PLT
.LVL96:
	.loc 1 227 3 is_stmt 1 view .LVU314
	.loc 1 228 3 view .LVU315
.LBB93:
	.loc 1 230 27 is_stmt 0 view .LVU316
	movq	104(%rsp), %rsi
	movq	%rbx, %rcx
	movq	%rbp, %rdi
	leaq	92(%rsp), %rdx
.LBE93:
	.loc 1 228 12 view .LVU317
	movl	$3, 92(%rsp)
	.loc 1 230 3 is_stmt 1 view .LVU318
.LBB94:
	.loc 1 230 8 view .LVU319
	.loc 1 230 27 is_stmt 0 view .LVU320
	call	vkGetSwapchainImagesKHR@PLT
.LVL97:
	.loc 1 230 2 is_stmt 1 discriminator 1 view .LVU321
	.loc 1 230 17 is_stmt 0 discriminator 1 view .LVU322
	testl	%eax, %eax
	jne	.L139
.LBE94:
	.loc 1 230 6 is_stmt 1 discriminator 2 view .LVU323
	.loc 1 233 3 view .LVU324
	.loc 1 233 31 is_stmt 0 view .LVU325
	movl	%r13d, %esi
	movq	%rbp, %rdi
	call	createCommandPool
.LVL98:
	.loc 1 233 31 view .LVU326
	movq	%rax, (%rsp)
.LVL99:
	.loc 1 234 2 is_stmt 1 view .LVU327
	.loc 1 234 17 is_stmt 0 view .LVU328
	testq	%rax, %rax
	je	.L140
	.loc 1 236 3 is_stmt 1 view .LVU329
.LBB95:
	.loc 1 244 27 is_stmt 0 view .LVU330
	leaq	136(%rsp), %r15
.LBE95:
	.loc 1 236 31 view .LVU331
	pxor	%xmm0, %xmm0
.LBB96:
	.loc 1 244 27 view .LVU332
	leaq	176(%rsp), %rsi
	movq	%rbp, %rdi
	movq	%r15, %rdx
.LBE96:
	.loc 1 236 31 view .LVU333
	movq	$0, 196(%rsp)
	movups	%xmm0, 180(%rsp)
	movl	$40, 176(%rsp)
	movq	%rax, 192(%rsp)
	movl	$1, 204(%rsp)
	.loc 1 243 3 is_stmt 1 view .LVU334
	.loc 1 243 19 is_stmt 0 view .LVU335
	movq	$0, 136(%rsp)
	.loc 1 244 3 is_stmt 1 view .LVU336
.LBB97:
	.loc 1 244 8 view .LVU337
	.loc 1 244 27 is_stmt 0 view .LVU338
	call	vkAllocateCommandBuffers@PLT
.LVL100:
	.loc 1 244 2 is_stmt 1 discriminator 1 view .LVU339
	.loc 1 244 17 is_stmt 0 discriminator 1 view .LVU340
	testl	%eax, %eax
	jne	.L141
	movl	$8, %r14d
	subq	%rbx, %r14
	jmp	.L113
.LVL101:
	.p2align 4,,10
	.p2align 3
.L124:
	.loc 1 244 17 discriminator 1 view .LVU341
.LBE97:
.LBB98:
	.loc 1 247 5 is_stmt 1 view .LVU342
	call	glfwPollEvents@PLT
.LVL102:
	.loc 1 249 5 view .LVU343
.LBB99:
	.loc 1 250 29 is_stmt 0 view .LVU344
	movq	8(%rsp), %r9
	xorl	%r8d, %r8d
	movq	%rbp, %rdi
	movq	112(%rsp), %rcx
	movq	104(%rsp), %rsi
	movq	$-1, %rdx
.LBE99:
	.loc 1 249 14 view .LVU345
	movl	$0, 96(%rsp)
	.loc 1 250 5 is_stmt 1 view .LVU346
.LBB100:
	.loc 1 250 10 view .LVU347
	.loc 1 250 29 is_stmt 0 view .LVU348
	call	vkAcquireNextImageKHR@PLT
.LVL103:
	.loc 1 250 4 is_stmt 1 discriminator 1 view .LVU349
	.loc 1 250 19 is_stmt 0 discriminator 1 view .LVU350
	testl	%eax, %eax
	jne	.L142
.LBE100:
	.loc 1 250 8 is_stmt 1 discriminator 2 view .LVU351
	.loc 1 253 5 view .LVU352
.LBB101:
	.loc 1 253 10 view .LVU353
	.loc 1 253 29 is_stmt 0 view .LVU354
	movq	(%rsp), %rsi
	xorl	%edx, %edx
	movq	%rbp, %rdi
	call	vkResetCommandPool@PLT
.LVL104:
	.loc 1 253 4 is_stmt 1 discriminator 1 view .LVU355
	.loc 1 253 19 is_stmt 0 discriminator 1 view .LVU356
	testl	%eax, %eax
	jne	.L143
.LBE101:
	.loc 1 253 8 is_stmt 1 discriminator 2 view .LVU357
	.loc 1 255 5 view .LVU358
.LBB102:
	.loc 1 260 29 is_stmt 0 view .LVU359
	movq	136(%rsp), %rdi
.LBE102:
	.loc 1 255 30 view .LVU360
	pxor	%xmm2, %xmm2
.LBB103:
	.loc 1 260 29 view .LVU361
	leaq	208(%rsp), %rsi
.LBE103:
	.loc 1 255 30 view .LVU362
	movl	$42, 208(%rsp)
	movups	%xmm2, 212(%rsp)
	movups	%xmm2, 224(%rsp)
	movl	$1, 224(%rsp)
	.loc 1 260 5 is_stmt 1 view .LVU363
.LBB104:
	.loc 1 260 10 view .LVU364
	.loc 1 260 29 is_stmt 0 view .LVU365
	call	vkBeginCommandBuffer@PLT
.LVL105:
	.loc 1 260 4 is_stmt 1 discriminator 1 view .LVU366
	.loc 1 260 19 is_stmt 0 discriminator 1 view .LVU367
	testl	%eax, %eax
	jne	.L144
.LBE104:
	.loc 1 260 8 is_stmt 1 discriminator 2 view .LVU368
	.loc 1 262 5 view .LVU369
	.loc 1 262 23 is_stmt 0 view .LVU370
	movaps	.LC30(%rip), %xmm3
	.loc 1 270 56 view .LVU371
	movl	96(%rsp), %r13d
	.loc 1 264 29 view .LVU372
	movq	$1, 144(%rsp)
	movq	$1, 152(%rsp)
	movl	$1, 160(%rsp)
	.loc 1 262 23 view .LVU373
	movaps	%xmm3, 384(%rsp)
	.loc 1 264 5 is_stmt 1 view .LVU374
	.loc 1 270 5 view .LVU375
	.loc 1 270 56 is_stmt 0 view .LVU376
	cmpq	$3, %r13
	jnb	.L149
.LVL106:
.L117:
	.loc 1 270 56 view .LVU377
	leaq	0(,%r13,8), %rdx
	leaq	(%rbx,%rdx), %rsi
	leaq	(%rsi,%r14), %rcx
	.loc 1 270 5 discriminator 1 view .LVU378
	cmpq	$24, %rcx
	ja	.L150
.L118:
	addq	%rbx, %rdx
	jc	.L151
.L120:
	movq	136(%rsp), %rdi
	movq	400(%rsp,%r13,8), %rsi
	leaq	384(%rsp), %rcx
	leaq	144(%rsp), %r9
	movl	$1, %r8d
	movl	$1, %edx
	call	vkCmdClearColorImage@PLT
.LVL107:
	.loc 1 273 5 is_stmt 1 view .LVU379
.LBB105:
	.loc 1 273 10 view .LVU380
	.loc 1 273 29 is_stmt 0 view .LVU381
	movq	136(%rsp), %rdi
	call	vkEndCommandBuffer@PLT
.LVL108:
	.loc 1 273 4 is_stmt 1 discriminator 1 view .LVU382
	.loc 1 273 19 is_stmt 0 discriminator 1 view .LVU383
	testl	%eax, %eax
	jne	.L145
.LBE105:
	.loc 1 273 8 is_stmt 1 discriminator 2 view .LVU384
	.loc 1 275 5 view .LVU385
	.loc 1 278 18 is_stmt 0 view .LVU386
	pxor	%xmm1, %xmm1
	leaq	120(%rsp), %r13
	.loc 1 289 5 view .LVU387
	xorl	%ecx, %ecx
	movl	$1, %esi
	.loc 1 278 18 view .LVU388
	movdqa	16(%rsp), %xmm4
	.loc 1 289 5 view .LVU389
	movq	128(%rsp), %rdi
	leaq	304(%rsp), %rdx
	.loc 1 278 18 view .LVU390
	movups	%xmm1, 340(%rsp)
	movups	%xmm1, 308(%rsp)
	movups	%xmm1, 352(%rsp)
	movups	%xmm1, 324(%rsp)
	.loc 1 275 26 view .LVU391
	movl	$1024, 100(%rsp)
	.loc 1 278 5 is_stmt 1 view .LVU392
	.loc 1 278 18 is_stmt 0 view .LVU393
	movl	$4, 304(%rsp)
	movl	$1, 320(%rsp)
	movl	$1, 344(%rsp)
	movq	%r15, 352(%rsp)
	movl	$1, 360(%rsp)
	movq	%r13, 368(%rsp)
	.loc 1 289 5 is_stmt 1 view .LVU394
	.loc 1 278 18 is_stmt 0 view .LVU395
	movups	%xmm4, 328(%rsp)
	.loc 1 289 5 view .LVU396
	call	vkQueueSubmit@PLT
.LVL109:
	.loc 1 291 5 is_stmt 1 view .LVU397
	.loc 1 291 22 is_stmt 0 view .LVU398
	movdqa	32(%rsp), %xmm5
.LBB106:
	.loc 1 300 29 view .LVU399
	movq	128(%rsp), %rdi
.LBE106:
	.loc 1 291 22 view .LVU400
	pxor	%xmm1, %xmm1
.LBB107:
	.loc 1 300 29 view .LVU401
	leaq	240(%rsp), %rsi
.LBE107:
	.loc 1 291 22 view .LVU402
	movups	%xmm1, 260(%rsp)
	movups	%xmm1, 276(%rsp)
	movups	%xmm1, 244(%rsp)
	movups	%xmm1, 288(%rsp)
	movl	$1000001001, 240(%rsp)
	movl	$1, 256(%rsp)
	movq	%r13, 264(%rsp)
	movl	$1, 272(%rsp)
	movups	%xmm5, 280(%rsp)
	.loc 1 300 5 is_stmt 1 view .LVU403
.LBB108:
	.loc 1 300 10 view .LVU404
	.loc 1 300 29 is_stmt 0 view .LVU405
	call	vkQueuePresentKHR@PLT
.LVL110:
	.loc 1 300 4 is_stmt 1 discriminator 1 view .LVU406
	.loc 1 300 19 is_stmt 0 discriminator 1 view .LVU407
	testl	%eax, %eax
	jne	.L146
.LBE108:
	.loc 1 300 8 is_stmt 1 discriminator 2 view .LVU408
	.loc 1 302 5 view .LVU409
.LBB109:
	.loc 1 302 10 view .LVU410
	.loc 1 302 29 is_stmt 0 view .LVU411
	movq	%rbp, %rdi
	call	vkDeviceWaitIdle@PLT
.LVL111:
	.loc 1 302 4 is_stmt 1 discriminator 1 view .LVU412
	.loc 1 302 19 is_stmt 0 discriminator 1 view .LVU413
	testl	%eax, %eax
	jne	.L147
.LVL112:
.L113:
	.loc 1 302 19 discriminator 1 view .LVU414
.LBE109:
.LBE98:
	.loc 1 246 10 is_stmt 1 view .LVU415
	.loc 1 246 11 is_stmt 0 view .LVU416
	movq	%r12, %rdi
	call	glfwWindowShouldClose@PLT
.LVL113:
	.loc 1 246 10 discriminator 1 view .LVU417
	testl	%eax, %eax
	je	.L124
	.loc 1 305 3 is_stmt 1 view .LVU418
	movq	%r12, %rdi
	call	glfwDestroyWindow@PLT
.LVL114:
	.loc 1 307 3 view .LVU419
	movq	48(%rsp), %rdi
	xorl	%esi, %esi
	call	vkDestroyInstance@PLT
.LVL115:
	.loc 1 308 1 is_stmt 0 view .LVU420
	movq	504(%rsp), %rax
	subq	%fs:40, %rax
	jne	.L152
	addq	$520, %rsp
	.cfi_remember_state
	.cfi_def_cfa_offset 56
	xorl	%eax, %eax
	popq	%rbx
	.cfi_def_cfa_offset 48
	popq	%rbp
	.cfi_def_cfa_offset 40
.LVL116:
	.loc 1 308 1 view .LVU421
	popq	%r12
	.cfi_def_cfa_offset 32
.LVL117:
	.loc 1 308 1 view .LVU422
	popq	%r13
	.cfi_def_cfa_offset 24
	popq	%r14
	.cfi_def_cfa_offset 16
	popq	%r15
	.cfi_def_cfa_offset 8
	ret
.LVL118:
.L149:
	.cfi_restore_state
.LBB116:
	.loc 1 270 56 view .LVU423
	movq	%r13, %rsi
	leaq	.Lubsan_data12(%rip), %rdi
	call	__ubsan_handle_out_of_bounds@PLT
.LVL119:
	.loc 1 270 56 view .LVU424
	jmp	.L117
.L151:
	.loc 1 270 5 discriminator 1 view .LVU425
	movq	%rbx, %rsi
	leaq	.Lubsan_data14(%rip), %rdi
	call	__ubsan_handle_pointer_overflow@PLT
.LVL120:
	jmp	.L120
.L150:
	addq	%rsi, %rcx
	jc	.L118
	leaq	.Lubsan_data13(%rip), %rdi
	movq	%rdx, 56(%rsp)
	call	__ubsan_handle_type_mismatch_v1@PLT
.LVL121:
	movq	56(%rsp), %rdx
	jmp	.L118
.LVL122:
.L152:
	.loc 1 270 5 discriminator 1 view .LVU426
.LBE116:
	.loc 1 308 1 view .LVU427
	call	__stack_chk_fail@PLT
.LVL123:
	.loc 1 308 1 view .LVU428
	.cfi_endproc
	.section	.text.unlikely
	.cfi_startproc
	.type	main.cold, @function
main.cold:
.LFSB174:
.L147:
	.cfi_def_cfa_offset 576
	.cfi_offset 3, -56
	.cfi_offset 6, -48
	.cfi_offset 12, -40
	.cfi_offset 13, -32
	.cfi_offset 14, -24
	.cfi_offset 15, -16
.LBB117:
.LBB110:
	.loc 1 302 21 discriminator 1 view .LVU243
	leaq	__PRETTY_FUNCTION__.0(%rip), %rcx
	movl	$302, %edx
	leaq	.LC2(%rip), %rsi
	leaq	.LC3(%rip), %rdi
	call	__assert_fail@PLT
.LVL124:
.L140:
	.loc 1 302 21 discriminator 1 view .LVU430
.LBE110:
.LBE117:
	.loc 1 234 19 discriminator 1 view .LVU431
	leaq	__PRETTY_FUNCTION__.0(%rip), %rcx
	movl	$234, %edx
	leaq	.LC2(%rip), %rsi
	leaq	.LC29(%rip), %rdi
	call	__assert_fail@PLT
.LVL125:
.L139:
.LBB118:
	.loc 1 230 19 discriminator 1 view .LVU432
	leaq	__PRETTY_FUNCTION__.0(%rip), %rcx
	movl	$230, %edx
	leaq	.LC2(%rip), %rsi
	leaq	.LC3(%rip), %rdi
	call	__assert_fail@PLT
.LVL126:
.L144:
	.loc 1 230 19 discriminator 1 view .LVU433
.LBE118:
.LBB119:
.LBB111:
	.loc 1 260 21 discriminator 1 view .LVU434
	leaq	__PRETTY_FUNCTION__.0(%rip), %rcx
	movl	$260, %edx
	leaq	.LC2(%rip), %rsi
	leaq	.LC3(%rip), %rdi
	call	__assert_fail@PLT
.LVL127:
.L143:
	.loc 1 260 21 discriminator 1 view .LVU435
.LBE111:
.LBB112:
	.loc 1 253 21 discriminator 1 view .LVU436
	leaq	__PRETTY_FUNCTION__.0(%rip), %rcx
	movl	$253, %edx
	leaq	.LC2(%rip), %rsi
	leaq	.LC3(%rip), %rdi
	call	__assert_fail@PLT
.LVL128:
.L146:
	.loc 1 253 21 discriminator 1 view .LVU437
.LBE112:
.LBB113:
	.loc 1 300 21 discriminator 1 view .LVU438
	leaq	__PRETTY_FUNCTION__.0(%rip), %rcx
	movl	$300, %edx
	leaq	.LC2(%rip), %rsi
	leaq	.LC3(%rip), %rdi
	call	__assert_fail@PLT
.LVL129:
.L145:
	.loc 1 300 21 discriminator 1 view .LVU439
.LBE113:
.LBB114:
	.loc 1 273 21 discriminator 1 view .LVU440
	leaq	__PRETTY_FUNCTION__.0(%rip), %rcx
	movl	$273, %edx
	leaq	.LC2(%rip), %rsi
	leaq	.LC3(%rip), %rdi
	call	__assert_fail@PLT
.LVL130:
.L134:
	.loc 1 273 21 discriminator 1 view .LVU441
.LBE114:
.LBE119:
	.loc 1 206 19 discriminator 1 view .LVU442
	leaq	__PRETTY_FUNCTION__.0(%rip), %rcx
	movl	$206, %edx
	leaq	.LC2(%rip), %rsi
	leaq	.LC24(%rip), %rdi
	call	__assert_fail@PLT
.LVL131:
.L133:
	.loc 1 202 19 discriminator 1 view .LVU443
	leaq	__PRETTY_FUNCTION__.0(%rip), %rcx
	movl	$202, %edx
	leaq	.LC2(%rip), %rsi
	leaq	.LC22(%rip), %rdi
	call	__assert_fail@PLT
.LVL132:
.L132:
	.loc 1 198 19 discriminator 1 view .LVU444
	leaq	__PRETTY_FUNCTION__.0(%rip), %rcx
	movl	$198, %edx
	leaq	.LC2(%rip), %rsi
	leaq	.LC21(%rip), %rdi
	call	__assert_fail@PLT
.LVL133:
.L131:
.LBB120:
	.loc 1 193 19 discriminator 1 view .LVU445
	leaq	__PRETTY_FUNCTION__.0(%rip), %rcx
	movl	$193, %edx
	leaq	.LC2(%rip), %rsi
	leaq	.LC3(%rip), %rdi
	call	__assert_fail@PLT
.LVL134:
.L138:
	.loc 1 193 19 discriminator 1 view .LVU446
.LBE120:
	.loc 1 222 19 discriminator 1 view .LVU447
	leaq	__PRETTY_FUNCTION__.0(%rip), %rcx
	movl	$222, %edx
	leaq	.LC2(%rip), %rsi
	leaq	.LC28(%rip), %rdi
	call	__assert_fail@PLT
.LVL135:
.L137:
	.loc 1 219 19 discriminator 1 view .LVU448
	leaq	__PRETTY_FUNCTION__.0(%rip), %rcx
	movl	$219, %edx
	leaq	.LC2(%rip), %rsi
	leaq	.LC27(%rip), %rdi
	call	__assert_fail@PLT
.LVL136:
.L130:
	.loc 1 188 19 discriminator 1 view .LVU449
	leaq	__PRETTY_FUNCTION__.0(%rip), %rcx
	movl	$188, %edx
	leaq	.LC2(%rip), %rsi
	leaq	.LC20(%rip), %rdi
	call	__assert_fail@PLT
.LVL137:
.L129:
	.loc 1 185 19 discriminator 1 view .LVU450
	leaq	__PRETTY_FUNCTION__.0(%rip), %rcx
	movl	$185, %edx
	leaq	.LC2(%rip), %rsi
	leaq	.LC19(%rip), %rdi
	call	__assert_fail@PLT
.LVL138:
.L142:
.LBB121:
.LBB115:
	.loc 1 250 21 discriminator 1 view .LVU451
	leaq	__PRETTY_FUNCTION__.0(%rip), %rcx
	movl	$250, %edx
	leaq	.LC2(%rip), %rsi
	leaq	.LC3(%rip), %rdi
	call	__assert_fail@PLT
.LVL139:
.L141:
	.loc 1 250 21 discriminator 1 view .LVU452
.LBE115:
.LBE121:
.LBB122:
	.loc 1 244 19 discriminator 1 view .LVU453
	leaq	__PRETTY_FUNCTION__.0(%rip), %rcx
	movl	$244, %edx
	leaq	.LC2(%rip), %rsi
	leaq	.LC3(%rip), %rdi
	call	__assert_fail@PLT
.LVL140:
.L136:
	.loc 1 244 19 discriminator 1 view .LVU454
.LBE122:
	.loc 1 216 19 discriminator 1 view .LVU455
	leaq	__PRETTY_FUNCTION__.0(%rip), %rcx
	movl	$216, %edx
	leaq	.LC2(%rip), %rsi
	leaq	.LC26(%rip), %rdi
	call	__assert_fail@PLT
.LVL141:
.L135:
	.loc 1 209 19 discriminator 1 view .LVU456
	leaq	__PRETTY_FUNCTION__.0(%rip), %rcx
	movl	$209, %edx
	leaq	.LC2(%rip), %rsi
	leaq	.LC25(%rip), %rdi
	call	__assert_fail@PLT
.LVL142:
	.loc 1 209 19 discriminator 1 view .LVU457
	.cfi_endproc
.LFE174:
	.section	.text.startup
	.size	main, .-main
	.section	.text.unlikely
	.size	main.cold, .-main.cold
.LCOLDE31:
	.section	.text.startup
.LHOTE31:
	.section	.data.rel.local,"aw"
	.align 16
	.type	.Lubsan_data14, @object
	.size	.Lubsan_data14, 16
.Lubsan_data14:
	.quad	.LC2
	.long	270
	.long	5
	.align 32
	.type	.Lubsan_data13, @object
	.size	.Lubsan_data13, 32
.Lubsan_data13:
	.quad	.LC2
	.long	270
	.long	5
	.quad	.Lubsan_type5
	.byte	0
	.byte	0
	.zero	6
	.data
	.align 2
	.type	.Lubsan_type5, @object
	.size	.Lubsan_type5, 25
.Lubsan_type5:
	.value	-1
	.value	0
	.string	"'struct VkImage_T *'"
	.section	.data.rel.local
	.align 32
	.type	.Lubsan_data12, @object
	.size	.Lubsan_data12, 32
.Lubsan_data12:
	.quad	.LC2
	.long	270
	.long	56
	.quad	.Lubsan_type4
	.quad	.Lubsan_type3
	.data
	.align 2
	.type	.Lubsan_type4, @object
	.size	.Lubsan_type4, 21
.Lubsan_type4:
	.value	-1
	.value	0
	.string	"'VkImage_T *[3]'"
	.align 2
	.type	.Lubsan_type3, @object
	.size	.Lubsan_type3, 19
.Lubsan_type3:
	.value	0
	.value	10
	.string	"'unsigned int'"
	.section	.data.rel.local
	.align 32
	.type	.Lubsan_data11, @object
	.size	.Lubsan_data11, 32
.Lubsan_data11:
	.quad	.LC2
	.long	85
	.long	27
	.quad	.Lubsan_type2
	.byte	2
	.byte	0
	.zero	6
	.align 32
	.type	.Lubsan_data10, @object
	.size	.Lubsan_data10, 32
.Lubsan_data10:
	.quad	.LC2
	.long	79
	.long	16
	.quad	.Lubsan_type2
	.byte	2
	.byte	1
	.zero	6
	.data
	.align 2
	.type	.Lubsan_type2, @object
	.size	.Lubsan_type2, 15
.Lubsan_type2:
	.value	-1
	.value	0
	.string	"'uint32_t'"
	.section	.data.rel.local
	.align 32
	.type	.Lubsan_data9, @object
	.size	.Lubsan_data9, 32
.Lubsan_data9:
	.quad	.LC2
	.long	70
	.long	27
	.quad	.Lubsan_type1
	.byte	3
	.byte	0
	.zero	6
	.align 32
	.type	.Lubsan_data8, @object
	.size	.Lubsan_data8, 32
.Lubsan_data8:
	.quad	.LC2
	.long	67
	.long	5
	.quad	.Lubsan_type1
	.byte	3
	.byte	0
	.zero	6
	.align 32
	.type	.Lubsan_data7, @object
	.size	.Lubsan_data7, 32
.Lubsan_data7:
	.quad	.LC2
	.long	61
	.long	29
	.quad	.Lubsan_type1
	.byte	3
	.byte	0
	.zero	6
	.align 16
	.type	.Lubsan_data6, @object
	.size	.Lubsan_data6, 16
.Lubsan_data6:
	.quad	.LC2
	.long	61
	.long	29
	.align 32
	.type	.Lubsan_data5, @object
	.size	.Lubsan_data5, 32
.Lubsan_data5:
	.quad	.LC2
	.long	57
	.long	5
	.quad	.Lubsan_type1
	.byte	3
	.byte	0
	.zero	6
	.data
	.align 2
	.type	.Lubsan_type1, @object
	.size	.Lubsan_type1, 34
.Lubsan_type1:
	.value	-1
	.value	0
	.string	"'struct VkPhysicalDevice_T *'"
	.section	.data.rel.local
	.align 16
	.type	.Lubsan_data4, @object
	.size	.Lubsan_data4, 16
.Lubsan_data4:
	.quad	.LC2
	.long	57
	.long	50
	.section	.rodata
	.type	__PRETTY_FUNCTION__.0, @object
	.size	__PRETTY_FUNCTION__.0, 5
__PRETTY_FUNCTION__.0:
	.string	"main"
	.align 16
	.type	__PRETTY_FUNCTION__.1, @object
	.size	__PRETTY_FUNCTION__.1, 18
__PRETTY_FUNCTION__.1:
	.string	"createCommandPool"
	.align 16
	.type	__PRETTY_FUNCTION__.2, @object
	.size	__PRETTY_FUNCTION__.2, 16
__PRETTY_FUNCTION__.2:
	.string	"createSemaphore"
	.align 16
	.type	__PRETTY_FUNCTION__.3, @object
	.size	__PRETTY_FUNCTION__.3, 16
__PRETTY_FUNCTION__.3:
	.string	"createSwapchain"
	.align 8
	.type	__PRETTY_FUNCTION__.4, @object
	.size	__PRETTY_FUNCTION__.4, 14
__PRETTY_FUNCTION__.4:
	.string	"createSurface"
	.align 8
	.type	__PRETTY_FUNCTION__.5, @object
	.size	__PRETTY_FUNCTION__.5, 13
__PRETTY_FUNCTION__.5:
	.string	"createDevice"
	.align 8
	.type	__PRETTY_FUNCTION__.6, @object
	.size	__PRETTY_FUNCTION__.6, 15
__PRETTY_FUNCTION__.6:
	.string	"createInstance"
	.section	.data.rel.ro.local,"aw"
	.align 8
.LC4:
	.quad	.LC0
	.section	.rodata.cst8,"aM",@progbits,8
	.align 8
.LC14:
	.long	2
	.long	37
	.align 8
.LC15:
	.long	1
	.long	16
	.section	.rodata.cst16,"aM",@progbits,16
	.align 16
.LC30:
	.long	1065353216
	.long	0
	.long	1108869120
	.long	1065353216
	.text
.Letext0:
	.section	.text.unlikely
.Letext_cold0:
	.file 2 "/usr/lib/gcc/x86_64-pc-linux-gnu/14.2.1/include/stddef.h"
	.file 3 "/usr/include/bits/types.h"
	.file 4 "/usr/include/bits/stdint-intn.h"
	.file 5 "/usr/include/bits/stdint-uintn.h"
	.file 6 "/usr/include/vulkan/vulkan_core.h"
	.file 7 "/usr/include/vulkan/vulkan_wayland.h"
	.file 8 "/usr/include/GLFW/glfw3.h"
	.file 9 "/usr/include/GLFW/glfw3native.h"
	.file 10 "/usr/include/stdio.h"
	.file 11 "/usr/include/assert.h"
	.file 12 "<built-in>"